; Function Attrs: mustprogress nofree nounwind willreturn memory(inaccessiblemem: readwrite) uwtable
define noalias noundef ptr @SUNDlsMat_newIntArray(i32 noundef %0) local_unnamed_addr #4 {
  %2 = icmp slt i32 %0, 1
  br i1 %2, label %7, label %3

3:                                                ; preds = %1
  %4 = zext nneg i32 %0 to i64
  %5 = shl nuw nsw i64 %4, 2
  %6 = tail call noalias ptr @malloc(i64 noundef %5) #12
  br label %7

7:                                                ; preds = %1, %3
  %.0 = phi ptr [ %6, %3 ], [ null, %1 ]
  ret ptr %.0
}